(dp1
S'decoder_num_units'
p2
(lp3
I100
aI100
asS'input2_size'
p4
I10
sS'tot_epochs'
p5
I300
sS'latent_size'
p6
cnumpy.core.multiarray
scalar
p7
(cnumpy
dtype
p8
(S'i8'
I0
I1
tRp9
(I3
S'<'
NNNI-1
I-1
I0
tbS'\x03\x00\x00\x00\x00\x00\x00\x00'
tRp10
sS'output_size'
p11
I1
sS'encoder_num_units'
p12
(lp13
I100
aI100
asS'input_size'
p14
I10
sS'name'
p15
S'one_qubit_comp_3_2'
p16
s.