(dp1
S'decoder_num_units'
p2
(lp3
I100
aI100
asS'input2_size'
p4
I30
sS'tot_epochs'
p5
I300
sS'latent_size'
p6
I7
sS'output_size'
p7
I1
sS'encoder_num_units'
p8
(lp9
I300
aI100
asS'input_size'
p10
I30
sS'name'
p11
S'two_qubits_comp_7_1'
p12
s.